; Function Attrs: nounwind uwtable
define ptr @l_Lean_Server_FileWorker_handlePreRequestSpecialCases_x3f___lambda__1(ptr noundef %0, ptr noundef %1, ptr readnone captures(none) %2, ptr noundef %3) local_unnamed_addr #0 {
  %5 = tail call ptr @l_Lean_Server_FileWorker_waitUnknownIdentifierRanges(ptr noundef %0, ptr noundef %1, ptr noundef %3) #7
  %.val = load i32, ptr %5, align 4, !tbaa !10
  %6 = icmp eq i32 %.val, 1
  br i1 %6, label %43, label %7

7:                                                ; preds = %4
  %8 = getelementptr inbounds nuw i8, ptr %5, i64 8
  %9 = load ptr, ptr %8, align 8, !tbaa !4
  %10 = getelementptr inbounds nuw i8, ptr %5, i64 16
  %11 = load ptr, ptr %10, align 8, !tbaa !4
  %12 = ptrtoint ptr %11 to i64
  %13 = and i64 %12, 1
  %.not = icmp eq i64 %13, 0
  br i1 %.not, label %14, label %lean_inc.exit16

14:                                               ; preds = %7
  %.val.i = load i32, ptr %11, align 4, !tbaa !10
  %15 = icmp sgt i32 %.val.i, 0
  br i1 %15, label %16, label %18, !prof !13

16:                                               ; preds = %14
  %17 = add nuw i32 %.val.i, 1
  store i32 %17, ptr %11, align 4, !tbaa !10
  br label %lean_inc.exit16

18:                                               ; preds = %14
  %.not.i17 = icmp eq i32 %.val.i, 0
  br i1 %.not.i17, label %lean_inc.exit16, label %19

19:                                               ; preds = %18
  tail call void @lean_inc_ref_cold(ptr noundef nonnull %11) #7
  br label %lean_inc.exit16

lean_inc.exit16:                                  ; preds = %19, %18, %16, %7
  %20 = ptrtoint ptr %9 to i64
  %21 = and i64 %20, 1
  %.not21 = icmp eq i64 %21, 0
  br i1 %.not21, label %22, label %lean_inc.exit

22:                                               ; preds = %lean_inc.exit16
  %.val.i18 = load i32, ptr %9, align 4, !tbaa !10
  %23 = icmp sgt i32 %.val.i18, 0
  br i1 %23, label %24, label %26, !prof !13

24:                                               ; preds = %22
  %25 = add nuw i32 %.val.i18, 1
  store i32 %25, ptr %9, align 4, !tbaa !10
  br label %lean_inc.exit

26:                                               ; preds = %22
  %.not.i19 = icmp eq i32 %.val.i18, 0
  br i1 %.not.i19, label %lean_inc.exit, label %27

27:                                               ; preds = %26
  tail call void @lean_inc_ref_cold(ptr noundef nonnull %9) #7
  br label %lean_inc.exit

lean_inc.exit:                                    ; preds = %27, %26, %24, %lean_inc.exit16
  %28 = ptrtoint ptr %5 to i64
  %29 = and i64 %28, 1
  %.not22 = icmp eq i64 %29, 0
  br i1 %.not22, label %30, label %lean_dec.exit

30:                                               ; preds = %lean_inc.exit
  %31 = load i32, ptr %5, align 4, !tbaa !10
  %32 = icmp sgt i32 %31, 1
  br i1 %32, label %33, label %35, !prof !13

33:                                               ; preds = %30
  %34 = add nsw i32 %31, -1
  store i32 %34, ptr %5, align 4, !tbaa !10
  br label %lean_dec.exit

35:                                               ; preds = %30
  %.not.i = icmp eq i32 %31, 0
  br i1 %.not.i, label %lean_dec.exit, label %36

36:                                               ; preds = %35
  tail call void @lean_dec_ref_cold(ptr noundef nonnull %5) #7
  br label %lean_dec.exit

lean_dec.exit:                                    ; preds = %36, %35, %33, %lean_inc.exit
  tail call void @lean_inc_heartbeat() #7
  %37 = tail call noalias ptr @mi_malloc_small(i64 noundef 24) #7
  %38 = icmp eq ptr %37, null
  br i1 %38, label %39, label %lean_alloc_ctor.exit

39:                                               ; preds = %lean_dec.exit
  tail call void @lean_internal_panic_out_of_memory() #8
  unreachable

lean_alloc_ctor.exit:                             ; preds = %lean_dec.exit
  %40 = getelementptr inbounds nuw i8, ptr %37, i64 4
  store i32 1, ptr %37, align 4, !tbaa !10
  store i32 131096, ptr %40, align 4
  %41 = getelementptr inbounds nuw i8, ptr %37, i64 8
  store ptr %9, ptr %41, align 8, !tbaa !4
  %42 = getelementptr inbounds nuw i8, ptr %37, i64 16
  store ptr %11, ptr %42, align 8, !tbaa !4
  br label %43

43:                                               ; preds = %4, %lean_alloc_ctor.exit
  %.0 = phi ptr [ %37, %lean_alloc_ctor.exit ], [ %5, %4 ]
  ret ptr %.0
}